target datalayout = "e-m:e-p270:32:32-p271:32:32-p272:64:64-i64:64-i128:128-f80:128-n8:16:32:64-S128"
target triple = "x86_64-unknown-linux-gnu"

%"struct.icu_75::CollationSettings" = type <{ %"class.icu_75::SharedObject", i32, i32, ptr, i32, [4 x i8], ptr, i32, [4 x i8], ptr, i32, i32, i32, [384 x i16], [4 x i8] }>
%"class.icu_75::SharedObject" = type { %"class.icu_75::UObject", i32, %"struct.std::atomic", ptr }
%"class.icu_75::UObject" = type { ptr }
%"struct.std::atomic" = type { %"struct.std::__atomic_base" }
%"struct.std::__atomic_base" = type { i32 }

; Function Attrs: mustprogress nounwind uwtable
define internal noundef signext i8 @_ZL9U_FAILURE10UErrorCode(i32 noundef %code) #1 {
entry:
  %code.addr = alloca i32, align 4
  store i32 %code, ptr %code.addr, align 4
  %0 = load i32, ptr %code.addr, align 4
  %cmp = icmp sgt i32 %0, 0
  %conv = zext i1 %cmp to i8
  ret i8 %conv
}

; Function Attrs: mustprogress uwtable
define void @_ZN6icu_7517CollationSettings12setCaseFirstE18UColAttributeValueiR10UErrorCode(ptr noundef nonnull align 8 dereferenceable(852) %this, i32 noundef %value, i32 noundef %defaultOptions, ptr noundef nonnull align 4 dereferenceable(4) %errorCode) #0 align 2 {
entry:
  %this.addr = alloca ptr, align 8
  %value.addr = alloca i32, align 4
  %defaultOptions.addr = alloca i32, align 4
  %errorCode.addr = alloca ptr, align 8
  %noCaseFirst = alloca i32, align 4
  store ptr %this, ptr %this.addr, align 8
  store i32 %value, ptr %value.addr, align 4
  store i32 %defaultOptions, ptr %defaultOptions.addr, align 4
  store ptr %errorCode, ptr %errorCode.addr, align 8
  %this1 = load ptr, ptr %this.addr, align 8
  %0 = load ptr, ptr %errorCode.addr, align 8
  %1 = load i32, ptr %0, align 4
  %call = call noundef signext i8 @_ZL9U_FAILURE10UErrorCode(i32 noundef %1)
  %tobool = icmp ne i8 %call, 0
  br i1 %tobool, label %if.then, label %if.end

if.then:                                          ; preds = %entry
  br label %sw.epilog

if.end:                                           ; preds = %entry
  %options = getelementptr inbounds %"struct.icu_75::CollationSettings", ptr %this1, i32 0, i32 1
  %2 = load i32, ptr %options, align 8
  %and = and i32 %2, -769
  store i32 %and, ptr %noCaseFirst, align 4
  %3 = load i32, ptr %value.addr, align 4
  switch i32 %3, label %sw.default [
    i32 16, label %sw.bb
    i32 24, label %sw.bb3
    i32 25, label %sw.bb5
    i32 -1, label %sw.bb8
  ]

sw.bb:                                            ; preds = %if.end
  %4 = load i32, ptr %noCaseFirst, align 4
  %options2 = getelementptr inbounds %"struct.icu_75::CollationSettings", ptr %this1, i32 0, i32 1
  store i32 %4, ptr %options2, align 8
  br label %sw.epilog

sw.bb3:                                           ; preds = %if.end
  %5 = load i32, ptr %noCaseFirst, align 4
  %or = or i32 %5, 512
  %options4 = getelementptr inbounds %"struct.icu_75::CollationSettings", ptr %this1, i32 0, i32 1
  store i32 %or, ptr %options4, align 8
  br label %sw.epilog

sw.bb5:                                           ; preds = %if.end
  %6 = load i32, ptr %noCaseFirst, align 4
  %or6 = or i32 %6, 768
  %options7 = getelementptr inbounds %"struct.icu_75::CollationSettings", ptr %this1, i32 0, i32 1
  store i32 %or6, ptr %options7, align 8
  br label %sw.epilog

sw.bb8:                                           ; preds = %if.end
  %7 = load i32, ptr %noCaseFirst, align 4
  %8 = load i32, ptr %defaultOptions.addr, align 4
  %and9 = and i32 %8, 768
  %or10 = or i32 %7, %and9
  %options11 = getelementptr inbounds %"struct.icu_75::CollationSettings", ptr %this1, i32 0, i32 1
  store i32 %or10, ptr %options11, align 8
  br label %sw.epilog

sw.default:                                       ; preds = %if.end
  %9 = load ptr, ptr %errorCode.addr, align 8
  store i32 1, ptr %9, align 4
  br label %sw.epilog

sw.epilog:                                        ; preds = %sw.default, %sw.bb8, %sw.bb5, %sw.bb3, %sw.bb, %if.then
  ret void
}