; Function Attrs: mustprogress nofree norecurse nosync nounwind willreturn memory(argmem: readwrite) uwtable
define void @_ZN6icu_7517CollationSettings12setCaseFirstE18UColAttributeValueiR10UErrorCode(ptr nocapture noundef nonnull align 8 dereferenceable(852) %this, i32 noundef %value, i32 noundef %defaultOptions, ptr nocapture noundef nonnull align 4 dereferenceable(4) %errorCode) local_unnamed_addr #10 align 2 {
entry:
  %0 = load i32, ptr %errorCode, align 4
  %cmp.i = icmp slt i32 %0, 1
  br i1 %cmp.i, label %if.end, label %sw.epilog

if.end:                                           ; preds = %entry
  %options = getelementptr inbounds i8, ptr %this, i64 24
  %1 = load i32, ptr %options, align 8
  %and = and i32 %1, -769
  switch i32 %value, label %sw.default [
    i32 16, label %sw.bb
    i32 24, label %sw.bb3
    i32 25, label %sw.bb5
    i32 -1, label %sw.bb8
  ]

sw.bb:                                            ; preds = %if.end
  store i32 %and, ptr %options, align 8
  br label %sw.epilog

sw.bb3:                                           ; preds = %if.end
  %or = or disjoint i32 %and, 512
  store i32 %or, ptr %options, align 8
  br label %sw.epilog

sw.bb5:                                           ; preds = %if.end
  %or6 = or i32 %1, 768
  store i32 %or6, ptr %options, align 8
  br label %sw.epilog

sw.bb8:                                           ; preds = %if.end
  %and9 = and i32 %defaultOptions, 768
  %or10 = or disjoint i32 %and, %and9
  store i32 %or10, ptr %options, align 8
  br label %sw.epilog

sw.default:                                       ; preds = %if.end
  store i32 1, ptr %errorCode, align 4
  br label %sw.epilog

sw.epilog:                                        ; preds = %entry, %sw.default, %sw.bb8, %sw.bb5, %sw.bb3, %sw.bb
  ret void
}